; Function Attrs: mustprogress uwtable
define void @_ZN6google8protobuf2io15GzipInputStreamC2EPNS1_19ZeroCopyInputStreamENS2_6FormatEi(ptr nocapture noundef nonnull align 8 dereferenceable(176) %this, ptr noundef %sub_stream, i32 noundef %format, i32 noundef %buffer_size) unnamed_addr #3 align 2 personality ptr @__gxx_personality_v0 {
entry:
  store ptr getelementptr inbounds ({ [9 x ptr] }, ptr @_ZTVN6google8protobuf2io15GzipInputStreamE, i64 0, i32 0, i64 2), ptr %this, align 8
  %format_ = getelementptr inbounds i8, ptr %this, i64 8
  store i32 %format, ptr %format_, align 8
  %sub_stream_ = getelementptr inbounds i8, ptr %this, i64 16
  store ptr %sub_stream, ptr %sub_stream_, align 8
  %zerror_ = getelementptr inbounds i8, ptr %this, i64 136
  store i32 0, ptr %zerror_, align 8
  %byte_count_ = getelementptr inbounds i8, ptr %this, i64 168
  store i64 0, ptr %byte_count_, align 8
  %zcontext_2 = getelementptr inbounds i8, ptr %this, i64 24
  %total_out = getelementptr inbounds i8, ptr %this, i64 64
  store ptr null, ptr %zcontext_2, align 8
  %avail_in = getelementptr inbounds i8, ptr %this, i64 32
  store i32 0, ptr %avail_in, align 8
  %total_in = getelementptr inbounds i8, ptr %this, i64 40
  store i64 0, ptr %total_in, align 8
  %cmp = icmp eq i32 %buffer_size, -1
  tail call void @llvm.memset.p0.i64(ptr noundef nonnull align 8 dereferenceable(48) %total_out, i8 0, i64 48, i1 false)
  %narrow = select i1 %cmp, i32 65536, i32 %buffer_size
  %spec.select = sext i32 %narrow to i64
  %0 = getelementptr inbounds i8, ptr %this, i64 160
  store i64 %spec.select, ptr %0, align 8
  %call = tail call noalias noundef nonnull ptr @_Znwm(i64 noundef %spec.select) #15
  %output_buffer_ = getelementptr inbounds i8, ptr %this, i64 144
  store ptr %call, ptr %output_buffer_, align 8
  %next_out = getelementptr inbounds i8, ptr %this, i64 48
  store ptr %call, ptr %next_out, align 8
  %1 = load i64, ptr %0, align 8
  %conv28 = trunc i64 %1 to i32
  %avail_out = getelementptr inbounds i8, ptr %this, i64 56
  store i32 %conv28, ptr %avail_out, align 8
  %output_position_ = getelementptr inbounds i8, ptr %this, i64 152
  store ptr %call, ptr %output_position_, align 8
  ret void
}